; Function Attrs: nounwind uwtable
define internal void @output_message(ptr noundef %0) #3 {
  %2 = alloca [200 x i8], align 16
  %3 = load ptr, ptr %0, align 8
  %4 = getelementptr inbounds i8, ptr %3, i64 24
  %5 = load ptr, ptr %4, align 8
  call void %5(ptr noundef nonnull %0, ptr noundef nonnull %2) #9
  %6 = load ptr, ptr @stderr, align 8
  %7 = call i32 (ptr, ptr, ...) @fprintf(ptr noundef %6, ptr noundef nonnull @.str, ptr noundef nonnull %2) #11
  ret void
}